; Function Attrs: mustprogress uwtable
define hidden i64 @_ZN4perf8TestBase7getSizeERKN2cv11_InputArrayE(ptr noundef nonnull align 8 dereferenceable(24) %0) local_unnamed_addr #5 align 2 {
  %2 = tail call noundef i32 @_ZNK2cv11_InputArray4kindEv(ptr noundef nonnull align 8 dereferenceable(24) %0)
  %.not = icmp eq i32 %2, 327680
  br i1 %.not, label %8, label %3

3:                                                ; preds = %1
  %4 = tail call noundef i32 @_ZNK2cv11_InputArray4kindEv(ptr noundef nonnull align 8 dereferenceable(24) %0)
  %.not3 = icmp eq i32 %4, 262144
  br i1 %.not3, label %8, label %5

5:                                                ; preds = %3
  %6 = tail call i64 @_ZNK2cv11_InputArray4sizeEi(ptr noundef nonnull align 8 dereferenceable(24) %0, i32 noundef -1)
  %.sroa.3.0.extract.shift = and i64 %6, -4294967296
  %7 = and i64 %6, 4294967295
  br label %8

8:                                                ; preds = %1, %3, %5
  %.sroa.3.0 = phi i64 [ %.sroa.3.0.extract.shift, %5 ], [ 0, %3 ], [ 0, %1 ]
  %.sroa.0.0 = phi i64 [ %7, %5 ], [ 0, %3 ], [ 0, %1 ]
  %.sroa.0.0.insert.insert = or disjoint i64 %.sroa.0.0, %.sroa.3.0
  ret i64 %.sroa.0.0.insert.insert
}